target datalayout = "e-m:e-p270:32:32-p271:32:32-p272:64:64-i64:64-i128:128-f80:128-n8:16:32:64-S128"
target triple = "x86_64-pc-linux-gnu"

%"class.std::__cxx11::basic_string" = type { %"struct.std::__cxx11::basic_string<char>::_Alloc_hider", i64, %union.anon }
%"struct.std::__cxx11::basic_string<char>::_Alloc_hider" = type { ptr }
%union.anon = type { i64, [8 x i8] }
%"class.std::shared_ptr" = type { %"class.std::__shared_ptr" }
%"class.std::__shared_ptr" = type { ptr, %"class.std::__shared_count" }
%"class.std::__shared_count" = type { ptr }
%"class.absl::debian2::optional" = type { %"class.absl::debian2::optional_internal::optional_data" }
%"class.absl::debian2::optional_internal::optional_data" = type { %"class.absl::debian2::optional_internal::optional_data_base" }
%"class.absl::debian2::optional_internal::optional_data_base" = type { %"class.absl::debian2::optional_internal::optional_data_dtor_base" }
%"class.absl::debian2::optional_internal::optional_data_dtor_base" = type { i8, %union.anon.20 }
%union.anon.20 = type { i8 }
%"class.open_spiel::euchre::EuchreState" = type { %"class.open_spiel::State.base", i8, i8, i32, i32, i32, i32, i32, i32, i32, i32, i32, i32, i32, i32, %"class.absl::debian2::optional", i32, %"class.std::vector.24", i32, i32, i32, i32, %"struct.std::array", %"struct.std::array.33", %"struct.std::array.33", %"class.std::vector.39" }
%"class.open_spiel::State.base" = type <{ ptr, %"class.std::shared_ptr", i32, i32, %"class.std::vector", i32 }>
%"class.std::vector" = type { %"struct.std::_Vector_base" }
%"struct.std::_Vector_base" = type { %"struct.std::_Vector_base<open_spiel::State::PlayerAction, std::allocator<open_spiel::State::PlayerAction>>::_Vector_impl" }
%"struct.std::_Vector_base<open_spiel::State::PlayerAction, std::allocator<open_spiel::State::PlayerAction>>::_Vector_impl" = type { %"struct.std::_Vector_base<open_spiel::State::PlayerAction, std::allocator<open_spiel::State::PlayerAction>>::_Vector_impl_data" }
%"struct.std::_Vector_base<open_spiel::State::PlayerAction, std::allocator<open_spiel::State::PlayerAction>>::_Vector_impl_data" = type { ptr, ptr, ptr }
%"class.std::vector.24" = type { %"struct.std::_Bvector_base" }
%"struct.std::_Bvector_base" = type { %"struct.std::_Bvector_base<std::allocator<bool>>::_Bvector_impl" }
%"struct.std::_Bvector_base<std::allocator<bool>>::_Bvector_impl" = type { %"struct.std::_Bvector_base<std::allocator<bool>>::_Bvector_impl_data" }
%"struct.std::_Bvector_base<std::allocator<bool>>::_Bvector_impl_data" = type { %"struct.std::_Bit_iterator", %"struct.std::_Bit_iterator", ptr }
%"struct.std::_Bit_iterator" = type { %"struct.std::_Bit_iterator_base.base", [4 x i8] }
%"struct.std::_Bit_iterator_base.base" = type <{ ptr, i32 }>
%"struct.std::array" = type { [5 x %"class.open_spiel::euchre::Trick"] }
%"class.open_spiel::euchre::Trick" = type { i32, i32, i32, i8, i32, i32, %"class.std::vector.28" }
%"class.std::vector.28" = type { %"struct.std::_Vector_base.29" }
%"struct.std::_Vector_base.29" = type { %"struct.std::_Vector_base<int, std::allocator<int>>::_Vector_impl" }
%"struct.std::_Vector_base<int, std::allocator<int>>::_Vector_impl" = type { %"struct.std::_Vector_base<int, std::allocator<int>>::_Vector_impl_data" }
%"struct.std::_Vector_base<int, std::allocator<int>>::_Vector_impl_data" = type { ptr, ptr, ptr }
%"struct.std::array.33" = type { [24 x %"class.absl::debian2::optional.34"] }
%"class.absl::debian2::optional.34" = type { %"class.absl::debian2::optional_internal::optional_data.35" }
%"class.absl::debian2::optional_internal::optional_data.35" = type { %"class.absl::debian2::optional_internal::optional_data_base.36" }
%"class.absl::debian2::optional_internal::optional_data_base.36" = type { %"class.absl::debian2::optional_internal::optional_data_dtor_base.37" }
%"class.absl::debian2::optional_internal::optional_data_dtor_base.37" = type { i8, %union.anon.38 }
%union.anon.38 = type { i32 }
%"class.std::vector.39" = type { %"struct.std::_Vector_base.40" }
%"struct.std::_Vector_base.40" = type { %"struct.std::_Vector_base<double, std::allocator<double>>::_Vector_impl" }
%"struct.std::_Vector_base<double, std::allocator<double>>::_Vector_impl" = type { %"struct.std::_Vector_base<double, std::allocator<double>>::_Vector_impl_data" }
%"struct.std::_Vector_base<double, std::allocator<double>>::_Vector_impl_data" = type { ptr, ptr, ptr }
%class.anon.99 = type { i8 }

@.str.26 = private unnamed_addr constant [132 x i8] c"generated/home/dtcxzyw/WorkSpace/Projects/compilers/llvm-opt-benchmark/bench/openspiel/open_spiel/open_spiel/games/euchre/euchre.cc\00", align 1
@.str.27 = private unnamed_addr constant [2 x i8] c":\00", align 1
@.str.70 = private unnamed_addr constant [13 x i8] c" CHECK_TRUE(\00", align 1
@.str.71 = private unnamed_addr constant [33 x i8] c"holder_[card] == current_player_\00", align 1
@.str.72 = private unnamed_addr constant [2 x i8] c")\00", align 1

; Function Attrs: mustprogress nounwind uwtable
define linkonce_odr noundef nonnull align 4 dereferenceable(4) ptr @_ZNK4absl7debian28optionalIiE9referenceEv(ptr noundef nonnull align 4 dereferenceable(8) %0) #5 comdat align 2 {
  %2 = alloca ptr, align 8
  store ptr %0, ptr %2, align 8
  %3 = load ptr, ptr %2, align 8
  %4 = getelementptr inbounds nuw %"class.absl::debian2::optional_internal::optional_data_dtor_base.37", ptr %3, i32 0, i32 1
  ret ptr %4
}

; Function Attrs: mustprogress nounwind uwtable
define linkonce_odr void @_ZZNKR4absl7debian28optionalIiEdeEvENKUlvE_clEv(ptr noundef nonnull align 1 dereferenceable(1) %0) #5 comdat align 2 {
  %2 = alloca ptr, align 8
  store ptr %0, ptr %2, align 8
  br label %3

3:                                                ; preds = %1
  call void @llvm.trap()
  unreachable

4:                                                ; No predecessors!
  ret void
}

; Function Attrs: mustprogress nounwind uwtable
define linkonce_odr void @_ZN4absl7debian217optional_internal23optional_data_dtor_baseIiLb1EE8destructEv(ptr noundef nonnull align 4 dereferenceable(8) %0) #5 comdat align 2 {
  %2 = alloca ptr, align 8
  store ptr %0, ptr %2, align 8
  %3 = load ptr, ptr %2, align 8
  %4 = getelementptr inbounds nuw %"class.absl::debian2::optional_internal::optional_data_dtor_base.37", ptr %3, i32 0, i32 0
  store i8 0, ptr %4, align 4
  ret void
}

; Function Attrs: mustprogress uwtable
define linkonce_odr noundef nonnull align 4 dereferenceable(4) ptr @_ZNKR4absl7debian28optionalIiEdeEv(ptr noundef nonnull align 4 dereferenceable(8) %0) #4 comdat align 2 {
  %2 = alloca ptr, align 8
  %3 = alloca %class.anon.99, align 1
  store ptr %0, ptr %2, align 8
  %4 = load ptr, ptr %2, align 8
  %5 = getelementptr inbounds nuw %"class.absl::debian2::optional_internal::optional_data_dtor_base.37", ptr %4, i32 0, i32 0
  %6 = load i8, ptr %5, align 4
  %7 = trunc i8 %6 to i1
  br i1 %7, label %8, label %9

8:                                                ; preds = %1
  br label %10

9:                                                ; preds = %1
  call void @_ZZNKR4absl7debian28optionalIiEdeEvENKUlvE_clEv(ptr noundef nonnull align 1 dereferenceable(1) %3)
  br label %10

10:                                               ; preds = %9, %8
  %11 = call noundef nonnull align 4 dereferenceable(4) ptr @_ZNK4absl7debian28optionalIiE9referenceEv(ptr noundef nonnull align 4 dereferenceable(8) %4)
  ret ptr %11
}

; Function Attrs: mustprogress nounwind uwtable
define linkonce_odr noundef zeroext i1 @_ZNK4absl7debian28optionalIiEcvbEv(ptr noundef nonnull align 4 dereferenceable(8) %0) #5 comdat align 2 {
  %2 = alloca ptr, align 8
  store ptr %0, ptr %2, align 8
  %3 = load ptr, ptr %2, align 8
  %4 = getelementptr inbounds nuw %"class.absl::debian2::optional_internal::optional_data_dtor_base.37", ptr %3, i32 0, i32 0
  %5 = load i8, ptr %4, align 4
  %6 = trunc i8 %5 to i1
  ret i1 %6
}

; Function Attrs: mustprogress nounwind uwtable
define linkonce_odr noundef nonnull align 4 dereferenceable(8) ptr @_ZNSt14__array_traitsIN4absl7debian28optionalIiEELm24EE6_S_refERA24_KS3_m(ptr noundef nonnull align 4 dereferenceable(192) %0, i64 noundef %1) #5 comdat align 2 {
  %3 = alloca ptr, align 8
  %4 = alloca i64, align 8
  store ptr %0, ptr %3, align 8
  store i64 %1, ptr %4, align 8
  %5 = load ptr, ptr %3, align 8
  %6 = load i64, ptr %4, align 8
  %7 = getelementptr inbounds [24 x %"class.absl::debian2::optional.34"], ptr %5, i64 0, i64 %6
  ret ptr %7
}

; Function Attrs: mustprogress nounwind uwtable
define linkonce_odr noundef nonnull align 4 dereferenceable(8) ptr @_ZN4absl7debian28optionalIiEaSENS0_9nullopt_tE(ptr noundef nonnull align 4 dereferenceable(8) %0) #5 comdat align 2 {
  %2 = alloca ptr, align 8
  store ptr %0, ptr %2, align 8
  %3 = load ptr, ptr %2, align 8
  call void @_ZN4absl7debian217optional_internal23optional_data_dtor_baseIiLb1EE8destructEv(ptr noundef nonnull align 4 dereferenceable(8) %3) #3
  ret ptr %3
}

; Function Attrs: mustprogress uwtable
define linkonce_odr noundef zeroext i1 @_ZN4absl7debian2eqIiiEEDTclL_ZNS0_17optional_internal19convertible_to_boolEbEeqdefp_fp0_EERKNS0_8optionalIT_EERKT0_(ptr noundef nonnull align 4 dereferenceable(8) %0, ptr noundef nonnull align 4 dereferenceable(4) %1) #4 comdat {
  %3 = alloca ptr, align 8
  %4 = alloca ptr, align 8
  store ptr %0, ptr %3, align 8
  store ptr %1, ptr %4, align 8
  %5 = load ptr, ptr %3, align 8
  %6 = call noundef zeroext i1 @_ZNK4absl7debian28optionalIiEcvbEv(ptr noundef nonnull align 4 dereferenceable(8) %5) #3
  br i1 %6, label %7, label %14

7:                                                ; preds = %2
  %8 = load ptr, ptr %3, align 8
  %9 = call noundef nonnull align 4 dereferenceable(4) ptr @_ZNKR4absl7debian28optionalIiEdeEv(ptr noundef nonnull align 4 dereferenceable(8) %8)
  %10 = load i32, ptr %9, align 4
  %11 = load ptr, ptr %4, align 8
  %12 = load i32, ptr %11, align 4
  %13 = icmp eq i32 %10, %12
  br label %15

14:                                               ; preds = %2
  br label %15

15:                                               ; preds = %14, %7
  %16 = phi i1 [ %13, %7 ], [ false, %14 ]
  ret i1 %16
}

; Function Attrs: mustprogress nounwind uwtable
define linkonce_odr noundef nonnull align 4 dereferenceable(8) ptr @_ZNSt5arrayIN4absl7debian28optionalIiEELm24EEixEm(ptr noundef nonnull align 4 dereferenceable(192) %0, i64 noundef %1) #5 comdat align 2 {
  %3 = alloca ptr, align 8
  %4 = alloca i64, align 8
  store ptr %0, ptr %3, align 8
  store i64 %1, ptr %4, align 8
  %5 = load ptr, ptr %3, align 8
  %6 = getelementptr inbounds nuw %"struct.std::array.33", ptr %5, i32 0, i32 0
  %7 = load i64, ptr %4, align 8
  %8 = call noundef nonnull align 4 dereferenceable(8) ptr @_ZNSt14__array_traitsIN4absl7debian28optionalIiEELm24EE6_S_refERA24_KS3_m(ptr noundef nonnull align 4 dereferenceable(192) %6, i64 noundef %7) #3
  ret ptr %8
}

; Function Attrs: mustprogress uwtable
define void @_ZN10open_spiel6euchre11EuchreState18ApplyDiscardActionEi(ptr noundef nonnull align 8 dereferenceable(824) %0, i32 noundef %1) #4 align 2 personality ptr @__gxx_personality_v0 {
  %3 = alloca ptr, align 8
  %4 = alloca i32, align 4
  %5 = alloca %"class.std::__cxx11::basic_string", align 8
  %6 = alloca i32, align 4
  %7 = alloca ptr, align 8
  %8 = alloca i32, align 4
  store ptr %0, ptr %3, align 8
  store i32 %1, ptr %4, align 4
  %9 = load ptr, ptr %3, align 8
  br label %10

10:                                               ; preds = %2
  %11 = getelementptr inbounds nuw %"class.open_spiel::euchre::EuchreState", ptr %9, i32 0, i32 23
  %12 = load i32, ptr %4, align 4
  %13 = sext i32 %12 to i64
  %14 = call noundef nonnull align 4 dereferenceable(8) ptr @_ZNSt5arrayIN4absl7debian28optionalIiEELm24EEixEm(ptr noundef nonnull align 4 dereferenceable(192) %11, i64 noundef %13) #3
  %15 = getelementptr inbounds nuw %"class.open_spiel::euchre::EuchreState", ptr %9, i32 0, i32 19
  %16 = call noundef zeroext i1 @_ZN4absl7debian2eqIiiEEDTclL_ZNS0_17optional_internal19convertible_to_boolEbEeqdefp_fp0_EERKNS0_8optionalIT_EERKT0_(ptr noundef nonnull align 4 dereferenceable(8) %14, ptr noundef nonnull align 4 dereferenceable(4) %15)
  %17 = xor i1 %16, true
  br i1 %17, label %18, label %24

18:                                               ; preds = %10
  store i32 566, ptr %6, align 4
  call void @_ZN10open_spiel8internal11SpielStrCatIJRA132_KcRA2_S2_iRA13_S2_RA33_S2_S6_EEENSt7__cxx1112basic_stringIcSt11char_traitsIcESaIcEEEDpOT_(ptr dead_on_unwind writable sret(%"class.std::__cxx11::basic_string") align 8 %5, ptr noundef nonnull align 1 dereferenceable(132) @.str.26, ptr noundef nonnull align 1 dereferenceable(2) @.str.27, ptr noundef nonnull align 4 dereferenceable(4) %6, ptr noundef nonnull align 1 dereferenceable(13) @.str.70, ptr noundef nonnull align 1 dereferenceable(33) @.str.71, ptr noundef nonnull align 1 dereferenceable(2) @.str.72)
  invoke void @_ZN10open_spiel15SpielFatalErrorERKNSt7__cxx1112basic_stringIcSt11char_traitsIcESaIcEEE(ptr noundef nonnull align 8 dereferenceable(32) %5) #16
          to label %19 unwind label %20

19:                                               ; preds = %18
  unreachable

20:                                               ; preds = %18
  %21 = landingpad { ptr, i32 }
          cleanup
  %22 = extractvalue { ptr, i32 } %21, 0
  store ptr %22, ptr %7, align 8
  %23 = extractvalue { ptr, i32 } %21, 1
  store i32 %23, ptr %8, align 4
  call void @_ZNSt7__cxx1112basic_stringIcSt11char_traitsIcESaIcEED1Ev(ptr noundef nonnull align 8 dereferenceable(32) %5) #3
  br label %36

24:                                               ; preds = %10
  %25 = load i32, ptr %4, align 4
  %26 = getelementptr inbounds nuw %"class.open_spiel::euchre::EuchreState", ptr %9, i32 0, i32 7
  store i32 %25, ptr %26, align 8
  %27 = getelementptr inbounds nuw %"class.open_spiel::euchre::EuchreState", ptr %9, i32 0, i32 23
  %28 = load i32, ptr %4, align 4
  %29 = sext i32 %28 to i64
  %30 = call noundef nonnull align 4 dereferenceable(8) ptr @_ZNSt5arrayIN4absl7debian28optionalIiEELm24EEixEm(ptr noundef nonnull align 4 dereferenceable(192) %27, i64 noundef %29) #3
  %31 = call noundef nonnull align 4 dereferenceable(8) ptr @_ZN4absl7debian28optionalIiEaSENS0_9nullopt_tE(ptr noundef nonnull align 4 dereferenceable(8) %30) #3
  %32 = getelementptr inbounds nuw %"class.open_spiel::euchre::EuchreState", ptr %9, i32 0, i32 21
  store i32 4, ptr %32, align 4
  %33 = getelementptr inbounds nuw %"class.open_spiel::euchre::EuchreState", ptr %9, i32 0, i32 11
  %34 = load i32, ptr %33, align 8
  %35 = getelementptr inbounds nuw %"class.open_spiel::euchre::EuchreState", ptr %9, i32 0, i32 19
  store i32 %34, ptr %35, align 4
  ret void

36:                                               ; preds = %20
  %37 = load ptr, ptr %7, align 8
  %38 = load i32, ptr %8, align 4
  %39 = insertvalue { ptr, i32 } poison, ptr %37, 0
  %40 = insertvalue { ptr, i32 } %39, i32 %38, 1
  resume { ptr, i32 } %40
}