; Function Attrs: mustprogress uwtable
define void @_ZN10open_spiel6euchre11EuchreState18ApplyDiscardActionEi(ptr noundef nonnull align 8 captures(none) dereferenceable(824) %0, i32 noundef %1) local_unnamed_addr #3 align 2 personality ptr @__gxx_personality_v0 {
  %3 = alloca %"class.std::__cxx11::basic_string", align 8
  %4 = alloca i32, align 4
  %5 = getelementptr inbounds nuw i8, ptr %0, i64 416
  %6 = sext i32 %1 to i64
  %7 = getelementptr inbounds [24 x %"class.absl::debian2::optional.34"], ptr %5, i64 0, i64 %6
  %8 = getelementptr inbounds nuw i8, ptr %0, i64 164
  %9 = load i8, ptr %7, align 8
  %10 = trunc i8 %9 to i1
  %11 = getelementptr inbounds nuw i8, ptr %7, i64 4
  %12 = load i32, ptr %11, align 4
  %13 = load i32, ptr %8, align 4
  %14 = icmp eq i32 %12, %13
  %15 = select i1 %10, i1 %14, i1 false
  br i1 %15, label %20, label %16

16:                                               ; preds = %2
  store i32 566, ptr %4, align 4
  call void @_ZN10open_spiel8internal11SpielStrCatIJRA132_KcRA2_S2_iRA13_S2_RA33_S2_S6_EEENSt7__cxx1112basic_stringIcSt11char_traitsIcESaIcEEEDpOT_(ptr dead_on_unwind nonnull writable sret(%"class.std::__cxx11::basic_string") align 8 %3, ptr noundef nonnull align 1 dereferenceable(132) @.str.26, ptr noundef nonnull align 1 dereferenceable(2) @.str.27, ptr noundef nonnull align 4 dereferenceable(4) %4, ptr noundef nonnull align 1 dereferenceable(13) @.str.70, ptr noundef nonnull align 1 dereferenceable(33) @.str.71, ptr noundef nonnull align 1 dereferenceable(2) @.str.72)
  invoke void @_ZN10open_spiel15SpielFatalErrorERKNSt7__cxx1112basic_stringIcSt11char_traitsIcESaIcEEE(ptr noundef nonnull align 8 dereferenceable(32) %3) #24
          to label %17 unwind label %18

17:                                               ; preds = %16
  unreachable

18:                                               ; preds = %16
  %19 = landingpad { ptr, i32 }
          cleanup
  call void @_ZNSt7__cxx1112basic_stringIcSt11char_traitsIcESaIcEED1Ev(ptr noundef nonnull align 8 dereferenceable(32) %3) #25
  resume { ptr, i32 } %19

20:                                               ; preds = %2
  %21 = getelementptr inbounds nuw i8, ptr %0, i64 80
  store i32 %1, ptr %21, align 8
  store i8 0, ptr %7, align 8
  %22 = getelementptr inbounds nuw i8, ptr %0, i64 172
  store i32 4, ptr %22, align 4
  %23 = getelementptr inbounds nuw i8, ptr %0, i64 96
  %24 = load i32, ptr %23, align 8
  store i32 %24, ptr %8, align 4
  ret void
}